target datalayout = "e-m:e-p270:32:32-p271:32:32-p272:64:64-i64:64-i128:128-f80:128-n8:16:32:64-S128"
target triple = "x86_64-pc-linux-gnu"

%"class.gmx::NeighborSearchSignaller" = type { %"class.gmx::ISignaller", %"class.std::vector", i64, i64, double }
%"class.gmx::ISignaller" = type { ptr }
%"class.std::vector" = type { %"struct.std::_Vector_base" }
%"struct.std::_Vector_base" = type { %"struct.std::_Vector_base<std::function<void (long, double)>, std::allocator<std::function<void (long, double)>>>::_Vector_impl" }
%"struct.std::_Vector_base<std::function<void (long, double)>, std::allocator<std::function<void (long, double)>>>::_Vector_impl" = type { %"struct.std::_Vector_base<std::function<void (long, double)>, std::allocator<std::function<void (long, double)>>>::_Vector_impl_data" }
%"struct.std::_Vector_base<std::function<void (long, double)>, std::allocator<std::function<void (long, double)>>>::_Vector_impl_data" = type { ptr, ptr, ptr }

@_ZTVN3gmx10ISignallerE = linkonce_odr unnamed_addr constant { [6 x ptr] } { [6 x ptr] [ptr null, ptr @_ZTIN3gmx10ISignallerE, ptr @__cxa_pure_virtual, ptr @__cxa_pure_virtual, ptr @_ZN3gmx10ISignallerD2Ev, ptr @_ZN3gmx10ISignallerD0Ev] }, comdat, align 8

; Function Attrs: mustprogress nounwind uwtable
define linkonce_odr void @_ZNSt15__new_allocatorISt8functionIFvldEEEC2ERKS3_(ptr noundef nonnull align 1 dereferenceable(1) %0, ptr noundef nonnull align 1 dereferenceable(1) %1) unnamed_addr #1 comdat align 2 {
  %3 = alloca ptr, align 8
  %4 = alloca ptr, align 8
  store ptr %0, ptr %3, align 8
  store ptr %1, ptr %4, align 8
  ret void
}

; Function Attrs: mustprogress nounwind uwtable
define linkonce_odr void @_ZNSt12_Vector_baseISt8functionIFvldEESaIS2_EE17_Vector_impl_dataC2EOS5_(ptr noundef nonnull align 8 dereferenceable(24) %0, ptr noundef nonnull align 8 dereferenceable(24) %1) unnamed_addr #1 comdat align 2 {
  %3 = alloca ptr, align 8
  %4 = alloca ptr, align 8
  store ptr %0, ptr %3, align 8
  store ptr %1, ptr %4, align 8
  %5 = load ptr, ptr %3, align 8
  %6 = getelementptr inbounds %"struct.std::_Vector_base<std::function<void (long, double)>, std::allocator<std::function<void (long, double)>>>::_Vector_impl_data", ptr %5, i32 0, i32 0
  %7 = load ptr, ptr %4, align 8
  %8 = getelementptr inbounds %"struct.std::_Vector_base<std::function<void (long, double)>, std::allocator<std::function<void (long, double)>>>::_Vector_impl_data", ptr %7, i32 0, i32 0
  %9 = load ptr, ptr %8, align 8
  store ptr %9, ptr %6, align 8
  %10 = getelementptr inbounds %"struct.std::_Vector_base<std::function<void (long, double)>, std::allocator<std::function<void (long, double)>>>::_Vector_impl_data", ptr %5, i32 0, i32 1
  %11 = load ptr, ptr %4, align 8
  %12 = getelementptr inbounds %"struct.std::_Vector_base<std::function<void (long, double)>, std::allocator<std::function<void (long, double)>>>::_Vector_impl_data", ptr %11, i32 0, i32 1
  %13 = load ptr, ptr %12, align 8
  store ptr %13, ptr %10, align 8
  %14 = getelementptr inbounds %"struct.std::_Vector_base<std::function<void (long, double)>, std::allocator<std::function<void (long, double)>>>::_Vector_impl_data", ptr %5, i32 0, i32 2
  %15 = load ptr, ptr %4, align 8
  %16 = getelementptr inbounds %"struct.std::_Vector_base<std::function<void (long, double)>, std::allocator<std::function<void (long, double)>>>::_Vector_impl_data", ptr %15, i32 0, i32 2
  %17 = load ptr, ptr %16, align 8
  store ptr %17, ptr %14, align 8
  %18 = load ptr, ptr %4, align 8
  %19 = getelementptr inbounds %"struct.std::_Vector_base<std::function<void (long, double)>, std::allocator<std::function<void (long, double)>>>::_Vector_impl_data", ptr %18, i32 0, i32 2
  store ptr null, ptr %19, align 8
  %20 = load ptr, ptr %4, align 8
  %21 = getelementptr inbounds %"struct.std::_Vector_base<std::function<void (long, double)>, std::allocator<std::function<void (long, double)>>>::_Vector_impl_data", ptr %20, i32 0, i32 1
  store ptr null, ptr %21, align 8
  %22 = load ptr, ptr %4, align 8
  %23 = getelementptr inbounds %"struct.std::_Vector_base<std::function<void (long, double)>, std::allocator<std::function<void (long, double)>>>::_Vector_impl_data", ptr %22, i32 0, i32 0
  store ptr null, ptr %23, align 8
  ret void
}

; Function Attrs: mustprogress nounwind uwtable
define linkonce_odr void @_ZNSaISt8functionIFvldEEEC2ERKS2_(ptr noundef nonnull align 1 dereferenceable(1) %0, ptr noundef nonnull align 1 dereferenceable(1) %1) unnamed_addr #1 comdat align 2 {
  %3 = alloca ptr, align 8
  %4 = alloca ptr, align 8
  store ptr %0, ptr %3, align 8
  store ptr %1, ptr %4, align 8
  %5 = load ptr, ptr %3, align 8
  %6 = load ptr, ptr %4, align 8
  call void @_ZNSt15__new_allocatorISt8functionIFvldEEEC2ERKS3_(ptr noundef nonnull align 1 dereferenceable(1) %5, ptr noundef nonnull align 1 dereferenceable(1) %6) #10
  ret void
}

; Function Attrs: mustprogress nounwind uwtable
define linkonce_odr void @_ZNSt12_Vector_baseISt8functionIFvldEESaIS2_EE12_Vector_implC2EOS5_(ptr noundef nonnull align 8 dereferenceable(24) %0, ptr noundef nonnull align 8 dereferenceable(24) %1) unnamed_addr #1 comdat align 2 {
  %3 = alloca ptr, align 8
  %4 = alloca ptr, align 8
  store ptr %0, ptr %3, align 8
  store ptr %1, ptr %4, align 8
  %5 = load ptr, ptr %3, align 8
  %6 = load ptr, ptr %4, align 8
  call void @_ZNSaISt8functionIFvldEEEC2ERKS2_(ptr noundef nonnull align 1 dereferenceable(1) %5, ptr noundef nonnull align 1 dereferenceable(1) %6) #10
  %7 = load ptr, ptr %4, align 8
  call void @_ZNSt12_Vector_baseISt8functionIFvldEESaIS2_EE17_Vector_impl_dataC2EOS5_(ptr noundef nonnull align 8 dereferenceable(24) %5, ptr noundef nonnull align 8 dereferenceable(24) %7) #10
  ret void
}

; Function Attrs: mustprogress nounwind uwtable
define linkonce_odr void @_ZNSt12_Vector_baseISt8functionIFvldEESaIS2_EEC2EOS4_(ptr noundef nonnull align 8 dereferenceable(24) %0, ptr noundef nonnull align 8 dereferenceable(24) %1) unnamed_addr #1 comdat align 2 {
  %3 = alloca ptr, align 8
  %4 = alloca ptr, align 8
  store ptr %0, ptr %3, align 8
  store ptr %1, ptr %4, align 8
  %5 = load ptr, ptr %3, align 8
  %6 = getelementptr inbounds %"struct.std::_Vector_base", ptr %5, i32 0, i32 0
  %7 = load ptr, ptr %4, align 8
  %8 = getelementptr inbounds %"struct.std::_Vector_base", ptr %7, i32 0, i32 0
  call void @_ZNSt12_Vector_baseISt8functionIFvldEESaIS2_EE12_Vector_implC2EOS5_(ptr noundef nonnull align 8 dereferenceable(24) %6, ptr noundef nonnull align 8 dereferenceable(24) %8) #10
  ret void
}

; Function Attrs: mustprogress nounwind uwtable
define linkonce_odr void @_ZNSt6vectorISt8functionIFvldEESaIS2_EEC2EOS4_(ptr noundef nonnull align 8 dereferenceable(24) %0, ptr noundef nonnull align 8 dereferenceable(24) %1) unnamed_addr #1 comdat align 2 {
  %3 = alloca ptr, align 8
  %4 = alloca ptr, align 8
  store ptr %0, ptr %3, align 8
  store ptr %1, ptr %4, align 8
  %5 = load ptr, ptr %3, align 8
  %6 = load ptr, ptr %4, align 8
  call void @_ZNSt12_Vector_baseISt8functionIFvldEESaIS2_EEC2EOS4_(ptr noundef nonnull align 8 dereferenceable(24) %5, ptr noundef nonnull align 8 dereferenceable(24) %6) #10
  ret void
}

; Function Attrs: mustprogress nounwind uwtable
define linkonce_odr void @_ZN3gmx10ISignallerC2Ev(ptr noundef nonnull align 8 dereferenceable(8) %0) unnamed_addr #1 comdat align 2 {
  %2 = alloca ptr, align 8
  store ptr %0, ptr %2, align 8
  %3 = load ptr, ptr %2, align 8
  store ptr getelementptr inbounds inrange(-16, 32) ({ [6 x ptr] }, ptr @_ZTVN3gmx10ISignallerE, i32 0, i32 0, i32 2), ptr %3, align 8
  ret void
}

; Function Attrs: mustprogress nounwind uwtable
define void @_ZN3gmx23NeighborSearchSignallerC2ESt6vectorISt8functionIFvldEESaIS4_EElld(ptr noundef nonnull align 8 dereferenceable(56) %0, ptr noundef %1, i64 noundef %2, i64 noundef %3, double noundef %4) unnamed_addr #1 align 2 {
  %6 = alloca ptr, align 8
  %7 = alloca ptr, align 8
  %8 = alloca i64, align 8
  %9 = alloca i64, align 8
  %10 = alloca double, align 8
  store ptr %0, ptr %6, align 8
  store ptr %1, ptr %7, align 8
  store i64 %2, ptr %8, align 8
  store i64 %3, ptr %9, align 8
  store double %4, ptr %10, align 8
  %11 = load ptr, ptr %6, align 8
  call void @_ZN3gmx10ISignallerC2Ev(ptr noundef nonnull align 8 dereferenceable(8) %11) #10
  store ptr getelementptr inbounds inrange(-16, 32) ({ [6 x ptr] }, ptr @_ZTVN3gmx23NeighborSearchSignallerE, i32 0, i32 0, i32 2), ptr %11, align 8
  %12 = getelementptr inbounds %"class.gmx::NeighborSearchSignaller", ptr %11, i32 0, i32 1
  call void @_ZNSt6vectorISt8functionIFvldEESaIS2_EEC2EOS4_(ptr noundef nonnull align 8 dereferenceable(24) %12, ptr noundef nonnull align 8 dereferenceable(24) %1) #10
  %13 = getelementptr inbounds %"class.gmx::NeighborSearchSignaller", ptr %11, i32 0, i32 2
  %14 = load i64, ptr %8, align 8
  store i64 %14, ptr %13, align 8
  %15 = getelementptr inbounds %"class.gmx::NeighborSearchSignaller", ptr %11, i32 0, i32 3
  %16 = load i64, ptr %9, align 8
  store i64 %16, ptr %15, align 8
  %17 = getelementptr inbounds %"class.gmx::NeighborSearchSignaller", ptr %11, i32 0, i32 4
  %18 = load double, ptr %10, align 8
  store double %18, ptr %17, align 8
  ret void
}