; Function Attrs: mustprogress nofree norecurse nosync nounwind willreturn memory(argmem: readwrite) uwtable
define void @_ZN3gmx23NeighborSearchSignallerC2ESt6vectorISt8functionIFvldEESaIS4_EElld(ptr nocapture noundef nonnull writeonly align 8 dereferenceable(56) %0, ptr nocapture noundef %1, i64 noundef %2, i64 noundef %3, double noundef %4) unnamed_addr #6 align 2 {
  store ptr getelementptr inbounds inrange(-16, 32) ({ [6 x ptr] }, ptr @_ZTVN3gmx23NeighborSearchSignallerE, i64 0, i32 0, i64 2), ptr %0, align 8
  %6 = getelementptr inbounds i8, ptr %0, i64 8
  %7 = load ptr, ptr %1, align 8
  store ptr %7, ptr %6, align 8
  %8 = getelementptr inbounds i8, ptr %0, i64 16
  %9 = getelementptr inbounds i8, ptr %1, i64 8
  %10 = load ptr, ptr %9, align 8
  store ptr %10, ptr %8, align 8
  %11 = getelementptr inbounds i8, ptr %0, i64 24
  %12 = getelementptr inbounds i8, ptr %1, i64 16
  %13 = load ptr, ptr %12, align 8
  store ptr %13, ptr %11, align 8
  tail call void @llvm.memset.p0.i64(ptr noundef nonnull align 8 dereferenceable(24) %1, i8 0, i64 24, i1 false)
  %14 = getelementptr inbounds i8, ptr %0, i64 32
  store i64 %2, ptr %14, align 8
  %15 = getelementptr inbounds i8, ptr %0, i64 40
  store i64 %3, ptr %15, align 8
  %16 = getelementptr inbounds i8, ptr %0, i64 48
  store double %4, ptr %16, align 8
  ret void
}